target datalayout = "e-m:e-p270:32:32-p271:32:32-p272:64:64-i64:64-i128:128-f80:128-n8:16:32:64-S128"
target triple = "x86_64-pc-linux-gnu"

%struct.sdshdr8 = type { i8, i8, i8, [0 x i8] }
%struct.sdshdr16 = type <{ i16, i16, i8, [0 x i8] }>
%struct.sdshdr32 = type <{ i32, i32, i8, [0 x i8] }>
%struct.sdshdr64 = type <{ i64, i64, i8, [0 x i8] }>

@.str.79 = private unnamed_addr constant [45 x i8] c"<max recursion level reached! Nested table?>\00", align 1
@.str.80 = private unnamed_addr constant [5 x i8] c"true\00", align 1
@.str.81 = private unnamed_addr constant [6 x i8] c"false\00", align 1
@.str.82 = private unnamed_addr constant [3 x i8] c"%g\00", align 1
@.str.83 = private unnamed_addr constant [4 x i8] c"nil\00", align 1
@.str.84 = private unnamed_addr constant [3 x i8] c"; \00", align 1
@.str.85 = private unnamed_addr constant [2 x i8] c"[\00", align 1
@.str.86 = private unnamed_addr constant [3 x i8] c"]=\00", align 1
@.str.87 = private unnamed_addr constant [2 x i8] c"{\00", align 1
@.str.88 = private unnamed_addr constant [2 x i8] c"}\00", align 1
@.str.89 = private unnamed_addr constant [8 x i8] c"unknown\00", align 1
@.str.90 = private unnamed_addr constant [9 x i8] c"function\00", align 1
@.str.91 = private unnamed_addr constant [9 x i8] c"userdata\00", align 1
@.str.92 = private unnamed_addr constant [7 x i8] c"thread\00", align 1
@.str.93 = private unnamed_addr constant [15 x i8] c"light-userdata\00", align 1
@.str.94 = private unnamed_addr constant [8 x i8] c"\22%s@%p\22\00", align 1
@.str.95 = private unnamed_addr constant [21 x i8] c"\22<unknown-lua-type>\22\00", align 1

; Function Attrs: inlinehint nounwind uwtable
define internal i64 @sdslen(ptr noundef %0) #6 {
  %2 = alloca i64, align 8
  %3 = alloca ptr, align 8
  %4 = alloca i8, align 1
  %5 = alloca i32, align 4
  store ptr %0, ptr %3, align 8, !tbaa !16
  call void @llvm.lifetime.start.p0(i64 1, ptr %4) #14
  %6 = load ptr, ptr %3, align 8, !tbaa !16
  %7 = getelementptr inbounds i8, ptr %6, i64 -1
  %8 = load i8, ptr %7, align 1, !tbaa !21
  store i8 %8, ptr %4, align 1, !tbaa !21
  %9 = load i8, ptr %4, align 1, !tbaa !21
  %10 = zext i8 %9 to i32
  %11 = and i32 %10, 7
  switch i32 %11, label %40 [
    i32 0, label %12
    i32 1, label %17
    i32 2, label %23
    i32 3, label %29
    i32 4, label %35
  ]

12:                                               ; preds = %1
  %13 = load i8, ptr %4, align 1, !tbaa !21
  %14 = zext i8 %13 to i32
  %15 = ashr i32 %14, 3
  %16 = sext i32 %15 to i64
  store i64 %16, ptr %2, align 8
  store i32 1, ptr %5, align 4
  br label %41

17:                                               ; preds = %1
  %18 = load ptr, ptr %3, align 8, !tbaa !16
  %19 = getelementptr inbounds i8, ptr %18, i64 -3
  %20 = getelementptr inbounds nuw %struct.sdshdr8, ptr %19, i32 0, i32 0
  %21 = load i8, ptr %20, align 1, !tbaa !21
  %22 = zext i8 %21 to i64
  store i64 %22, ptr %2, align 8
  store i32 1, ptr %5, align 4
  br label %41

23:                                               ; preds = %1
  %24 = load ptr, ptr %3, align 8, !tbaa !16
  %25 = getelementptr inbounds i8, ptr %24, i64 -5
  %26 = getelementptr inbounds nuw %struct.sdshdr16, ptr %25, i32 0, i32 0
  %27 = load i16, ptr %26, align 1, !tbaa !109
  %28 = zext i16 %27 to i64
  store i64 %28, ptr %2, align 8
  store i32 1, ptr %5, align 4
  br label %41

29:                                               ; preds = %1
  %30 = load ptr, ptr %3, align 8, !tbaa !16
  %31 = getelementptr inbounds i8, ptr %30, i64 -9
  %32 = getelementptr inbounds nuw %struct.sdshdr32, ptr %31, i32 0, i32 0
  %33 = load i32, ptr %32, align 1, !tbaa !19
  %34 = zext i32 %33 to i64
  store i64 %34, ptr %2, align 8
  store i32 1, ptr %5, align 4
  br label %41

35:                                               ; preds = %1
  %36 = load ptr, ptr %3, align 8, !tbaa !16
  %37 = getelementptr inbounds i8, ptr %36, i64 -17
  %38 = getelementptr inbounds nuw %struct.sdshdr64, ptr %37, i32 0, i32 0
  %39 = load i64, ptr %38, align 1, !tbaa !18
  store i64 %39, ptr %2, align 8
  store i32 1, ptr %5, align 4
  br label %41

40:                                               ; preds = %1
  store i64 0, ptr %2, align 8
  store i32 1, ptr %5, align 4
  br label %41

41:                                               ; preds = %40, %35, %29, %23, %17, %12
  call void @llvm.lifetime.end.p0(i64 1, ptr %4) #14
  %42 = load i64, ptr %2, align 8
  ret i64 %42
}

; Function Attrs: nounwind uwtable
define dso_local ptr @ldbCatStackValueRec(ptr noundef %0, ptr noundef %1, i32 noundef %2, i32 noundef %3) #0 {
  %5 = alloca ptr, align 8
  %6 = alloca ptr, align 8
  %7 = alloca ptr, align 8
  %8 = alloca i32, align 4
  %9 = alloca i32, align 4
  %10 = alloca i32, align 4
  %11 = alloca i32, align 4
  %12 = alloca i64, align 8
  %13 = alloca ptr, align 8
  %14 = alloca i32, align 4
  %15 = alloca i32, align 4
  %16 = alloca ptr, align 8
  %17 = alloca ptr, align 8
  %18 = alloca ptr, align 8
  %19 = alloca ptr, align 8
  store ptr %0, ptr %6, align 8, !tbaa !16
  store ptr %1, ptr %7, align 8, !tbaa !24
  store i32 %2, ptr %8, align 4, !tbaa !19
  store i32 %3, ptr %9, align 4, !tbaa !19
  call void @llvm.lifetime.start.p0(i64 4, ptr %10) #14
  %20 = load ptr, ptr %7, align 8, !tbaa !24
  %21 = load i32, ptr %8, align 4, !tbaa !19
  %22 = call i32 @lua_type(ptr noundef %20, i32 noundef %21)
  store i32 %22, ptr %10, align 4, !tbaa !19
  %23 = load i32, ptr %9, align 4, !tbaa !19
  %24 = add nsw i32 %23, 1
  store i32 %24, ptr %9, align 4, !tbaa !19
  %25 = icmp eq i32 %23, 10
  br i1 %25, label %26, label %29

26:                                               ; preds = %4
  %27 = load ptr, ptr %6, align 8, !tbaa !16
  %28 = call ptr @sdscat(ptr noundef %27, ptr noundef @.str.79)
  store ptr %28, ptr %5, align 8
  store i32 1, ptr %11, align 4
  br label %165

29:                                               ; preds = %4
  %30 = load i32, ptr %10, align 4, !tbaa !19
  switch i32 %30, label %160 [
    i32 4, label %31
    i32 1, label %39
    i32 3, label %47
    i32 0, label %53
    i32 5, label %56
    i32 6, label %133
    i32 7, label %133
    i32 8, label %133
    i32 2, label %133
  ]

31:                                               ; preds = %29
  call void @llvm.lifetime.start.p0(i64 8, ptr %12) #14
  call void @llvm.lifetime.start.p0(i64 8, ptr %13) #14
  %32 = load ptr, ptr %7, align 8, !tbaa !24
  %33 = load i32, ptr %8, align 4, !tbaa !19
  %34 = call ptr @lua_tolstring(ptr noundef %32, i32 noundef %33, ptr noundef %12)
  store ptr %34, ptr %13, align 8, !tbaa !16
  %35 = load ptr, ptr %6, align 8, !tbaa !16
  %36 = load ptr, ptr %13, align 8, !tbaa !16
  %37 = load i64, ptr %12, align 8, !tbaa !18
  %38 = call ptr @sdscatrepr(ptr noundef %35, ptr noundef %36, i64 noundef %37)
  store ptr %38, ptr %6, align 8, !tbaa !16
  call void @llvm.lifetime.end.p0(i64 8, ptr %13) #14
  call void @llvm.lifetime.end.p0(i64 8, ptr %12) #14
  br label %163

39:                                               ; preds = %29
  %40 = load ptr, ptr %6, align 8, !tbaa !16
  %41 = load ptr, ptr %7, align 8, !tbaa !24
  %42 = load i32, ptr %8, align 4, !tbaa !19
  %43 = call i32 @lua_toboolean(ptr noundef %41, i32 noundef %42)
  %44 = icmp ne i32 %43, 0
  %45 = select i1 %44, ptr @.str.80, ptr @.str.81
  %46 = call ptr @sdscat(ptr noundef %40, ptr noundef %45)
  store ptr %46, ptr %6, align 8, !tbaa !16
  br label %163

47:                                               ; preds = %29
  %48 = load ptr, ptr %6, align 8, !tbaa !16
  %49 = load ptr, ptr %7, align 8, !tbaa !24
  %50 = load i32, ptr %8, align 4, !tbaa !19
  %51 = call double @lua_tonumber(ptr noundef %49, i32 noundef %50)
  %52 = call ptr (ptr, ptr, ...) @sdscatprintf(ptr noundef %48, ptr noundef @.str.82, double noundef %51)
  store ptr %52, ptr %6, align 8, !tbaa !16
  br label %163

53:                                               ; preds = %29
  %54 = load ptr, ptr %6, align 8, !tbaa !16
  %55 = call ptr @sdscatlen(ptr noundef %54, ptr noundef @.str.83, i64 noundef 3)
  store ptr %55, ptr %6, align 8, !tbaa !16
  br label %163

56:                                               ; preds = %29
  call void @llvm.lifetime.start.p0(i64 4, ptr %14) #14
  store i32 1, ptr %14, align 4, !tbaa !19
  call void @llvm.lifetime.start.p0(i64 4, ptr %15) #14
  store i32 1, ptr %15, align 4, !tbaa !19
  call void @llvm.lifetime.start.p0(i64 8, ptr %16) #14
  %57 = call ptr @sdsempty()
  store ptr %57, ptr %16, align 8, !tbaa !16
  call void @llvm.lifetime.start.p0(i64 8, ptr %17) #14
  %58 = call ptr @sdsempty()
  store ptr %58, ptr %17, align 8, !tbaa !16
  %59 = load ptr, ptr %7, align 8, !tbaa !24
  call void @lua_pushnil(ptr noundef %59)
  br label %60

60:                                               ; preds = %80, %56
  %61 = load ptr, ptr %7, align 8, !tbaa !24
  %62 = load i32, ptr %8, align 4, !tbaa !19
  %63 = sub nsw i32 %62, 1
  %64 = call i32 @lua_next(ptr noundef %61, i32 noundef %63)
  %65 = icmp ne i32 %64, 0
  br i1 %65, label %66, label %104

66:                                               ; preds = %60
  %67 = load i32, ptr %15, align 4, !tbaa !19
  %68 = icmp ne i32 %67, 0
  br i1 %68, label %69, label %80

69:                                               ; preds = %66
  %70 = load ptr, ptr %7, align 8, !tbaa !24
  %71 = call i32 @lua_type(ptr noundef %70, i32 noundef -2)
  %72 = icmp ne i32 %71, 3
  br i1 %72, label %79, label %73

73:                                               ; preds = %69
  %74 = load ptr, ptr %7, align 8, !tbaa !24
  %75 = call double @lua_tonumber(ptr noundef %74, i32 noundef -2)
  %76 = load i32, ptr %14, align 4, !tbaa !19
  %77 = sitofp i32 %76 to double
  %78 = fcmp une double %75, %77
  br i1 %78, label %79, label %80

79:                                               ; preds = %73, %69
  store i32 0, ptr %15, align 4, !tbaa !19
  br label %80

80:                                               ; preds = %79, %73, %66
  %81 = load ptr, ptr %16, align 8, !tbaa !16
  %82 = load ptr, ptr %7, align 8, !tbaa !24
  %83 = load i32, ptr %9, align 4, !tbaa !19
  %84 = call ptr @ldbCatStackValueRec(ptr noundef %81, ptr noundef %82, i32 noundef -1, i32 noundef %83)
  store ptr %84, ptr %16, align 8, !tbaa !16
  %85 = load ptr, ptr %16, align 8, !tbaa !16
  %86 = call ptr @sdscatlen(ptr noundef %85, ptr noundef @.str.84, i64 noundef 2)
  store ptr %86, ptr %16, align 8, !tbaa !16
  %87 = load ptr, ptr %17, align 8, !tbaa !16
  %88 = call ptr @sdscatlen(ptr noundef %87, ptr noundef @.str.85, i64 noundef 1)
  store ptr %88, ptr %17, align 8, !tbaa !16
  %89 = load ptr, ptr %17, align 8, !tbaa !16
  %90 = load ptr, ptr %7, align 8, !tbaa !24
  %91 = load i32, ptr %9, align 4, !tbaa !19
  %92 = call ptr @ldbCatStackValueRec(ptr noundef %89, ptr noundef %90, i32 noundef -2, i32 noundef %91)
  store ptr %92, ptr %17, align 8, !tbaa !16
  %93 = load ptr, ptr %17, align 8, !tbaa !16
  %94 = call ptr @sdscatlen(ptr noundef %93, ptr noundef @.str.86, i64 noundef 2)
  store ptr %94, ptr %17, align 8, !tbaa !16
  %95 = load ptr, ptr %17, align 8, !tbaa !16
  %96 = load ptr, ptr %7, align 8, !tbaa !24
  %97 = load i32, ptr %9, align 4, !tbaa !19
  %98 = call ptr @ldbCatStackValueRec(ptr noundef %95, ptr noundef %96, i32 noundef -1, i32 noundef %97)
  store ptr %98, ptr %17, align 8, !tbaa !16
  %99 = load ptr, ptr %17, align 8, !tbaa !16
  %100 = call ptr @sdscatlen(ptr noundef %99, ptr noundef @.str.84, i64 noundef 2)
  store ptr %100, ptr %17, align 8, !tbaa !16
  %101 = load ptr, ptr %7, align 8, !tbaa !24
  call void @lua_settop(ptr noundef %101, i32 noundef -2)
  %102 = load i32, ptr %14, align 4, !tbaa !19
  %103 = add nsw i32 %102, 1
  store i32 %103, ptr %14, align 4, !tbaa !19
  br label %60, !llvm.loop !174

104:                                              ; preds = %60
  %105 = load ptr, ptr %16, align 8, !tbaa !16
  %106 = call i64 @sdslen(ptr noundef %105)
  %107 = icmp ne i64 %106, 0
  br i1 %107, label %108, label %110

108:                                              ; preds = %104
  %109 = load ptr, ptr %16, align 8, !tbaa !16
  call void @sdsrange(ptr noundef %109, i64 noundef 0, i64 noundef -3)
  br label %110

110:                                              ; preds = %108, %104
  %111 = load ptr, ptr %17, align 8, !tbaa !16
  %112 = call i64 @sdslen(ptr noundef %111)
  %113 = icmp ne i64 %112, 0
  br i1 %113, label %114, label %116

114:                                              ; preds = %110
  %115 = load ptr, ptr %17, align 8, !tbaa !16
  call void @sdsrange(ptr noundef %115, i64 noundef 0, i64 noundef -3)
  br label %116

116:                                              ; preds = %114, %110
  %117 = load ptr, ptr %6, align 8, !tbaa !16
  %118 = call ptr @sdscatlen(ptr noundef %117, ptr noundef @.str.87, i64 noundef 1)
  store ptr %118, ptr %6, align 8, !tbaa !16
  %119 = load ptr, ptr %6, align 8, !tbaa !16
  %120 = load i32, ptr %15, align 4, !tbaa !19
  %121 = icmp ne i32 %120, 0
  br i1 %121, label %122, label %124

122:                                              ; preds = %116
  %123 = load ptr, ptr %16, align 8, !tbaa !16
  br label %126

124:                                              ; preds = %116
  %125 = load ptr, ptr %17, align 8, !tbaa !16
  br label %126

126:                                              ; preds = %124, %122
  %127 = phi ptr [ %123, %122 ], [ %125, %124 ]
  %128 = call ptr @sdscatsds(ptr noundef %119, ptr noundef %127)
  store ptr %128, ptr %6, align 8, !tbaa !16
  %129 = load ptr, ptr %6, align 8, !tbaa !16
  %130 = call ptr @sdscatlen(ptr noundef %129, ptr noundef @.str.88, i64 noundef 1)
  store ptr %130, ptr %6, align 8, !tbaa !16
  %131 = load ptr, ptr %16, align 8, !tbaa !16
  call void @sdsfree(ptr noundef %131)
  %132 = load ptr, ptr %17, align 8, !tbaa !16
  call void @sdsfree(ptr noundef %132)
  call void @llvm.lifetime.end.p0(i64 8, ptr %17) #14
  call void @llvm.lifetime.end.p0(i64 8, ptr %16) #14
  call void @llvm.lifetime.end.p0(i64 4, ptr %15) #14
  call void @llvm.lifetime.end.p0(i64 4, ptr %14) #14
  br label %163

133:                                              ; preds = %29, %29, %29, %29
  call void @llvm.lifetime.start.p0(i64 8, ptr %18) #14
  %134 = load ptr, ptr %7, align 8, !tbaa !24
  %135 = load i32, ptr %8, align 4, !tbaa !19
  %136 = call ptr @lua_topointer(ptr noundef %134, i32 noundef %135)
  store ptr %136, ptr %18, align 8, !tbaa !5
  call void @llvm.lifetime.start.p0(i64 8, ptr %19) #14
  store ptr @.str.89, ptr %19, align 8, !tbaa !16
  %137 = load i32, ptr %10, align 4, !tbaa !19
  %138 = icmp eq i32 %137, 6
  br i1 %138, label %139, label %140

139:                                              ; preds = %133
  store ptr @.str.90, ptr %19, align 8, !tbaa !16
  br label %155

140:                                              ; preds = %133
  %141 = load i32, ptr %10, align 4, !tbaa !19
  %142 = icmp eq i32 %141, 7
  br i1 %142, label %143, label %144

143:                                              ; preds = %140
  store ptr @.str.91, ptr %19, align 8, !tbaa !16
  br label %154

144:                                              ; preds = %140
  %145 = load i32, ptr %10, align 4, !tbaa !19
  %146 = icmp eq i32 %145, 8
  br i1 %146, label %147, label %148

147:                                              ; preds = %144
  store ptr @.str.92, ptr %19, align 8, !tbaa !16
  br label %153

148:                                              ; preds = %144
  %149 = load i32, ptr %10, align 4, !tbaa !19
  %150 = icmp eq i32 %149, 2
  br i1 %150, label %151, label %152

151:                                              ; preds = %148
  store ptr @.str.93, ptr %19, align 8, !tbaa !16
  br label %152

152:                                              ; preds = %151, %148
  br label %153

153:                                              ; preds = %152, %147
  br label %154

154:                                              ; preds = %153, %143
  br label %155

155:                                              ; preds = %154, %139
  %156 = load ptr, ptr %6, align 8, !tbaa !16
  %157 = load ptr, ptr %19, align 8, !tbaa !16
  %158 = load ptr, ptr %18, align 8, !tbaa !5
  %159 = call ptr (ptr, ptr, ...) @sdscatprintf(ptr noundef %156, ptr noundef @.str.94, ptr noundef %157, ptr noundef %158)
  store ptr %159, ptr %6, align 8, !tbaa !16
  call void @llvm.lifetime.end.p0(i64 8, ptr %19) #14
  call void @llvm.lifetime.end.p0(i64 8, ptr %18) #14
  br label %163

160:                                              ; preds = %29
  %161 = load ptr, ptr %6, align 8, !tbaa !16
  %162 = call ptr @sdscat(ptr noundef %161, ptr noundef @.str.95)
  store ptr %162, ptr %6, align 8, !tbaa !16
  br label %163

163:                                              ; preds = %160, %155, %126, %53, %47, %39, %31
  %164 = load ptr, ptr %6, align 8, !tbaa !16
  store ptr %164, ptr %5, align 8
  store i32 1, ptr %11, align 4
  br label %165

165:                                              ; preds = %163, %26
  call void @llvm.lifetime.end.p0(i64 4, ptr %10) #14
  %166 = load ptr, ptr %5, align 8
  ret ptr %166
}