; Function Attrs: nounwind uwtable
define dso_local ptr @ldbCatStackValueRec(ptr noundef %0, ptr noundef %1, i32 noundef %2, i32 noundef %3) local_unnamed_addr #0 {
  %5 = alloca i64, align 8
  %6 = tail call i32 @lua_type(ptr noundef %1, i32 noundef %2) #19
  %7 = add nsw i32 %3, 1
  %8 = icmp eq i32 %3, 10
  br i1 %8, label %9, label %11

9:                                                ; preds = %4
  %10 = tail call ptr @sdscat(ptr noundef %0, ptr noundef nonnull @.str.79) #19
  br label %105

11:                                               ; preds = %4
  switch i32 %6, label %103 [
    i32 4, label %12
    i32 1, label %16
    i32 3, label %20
    i32 0, label %23
    i32 5, label %25
    i32 6, label %98
    i32 7, label %98
    i32 8, label %98
    i32 2, label %98
  ]

12:                                               ; preds = %11
  call void @llvm.lifetime.start.p0(i64 8, ptr nonnull %5) #19
  %13 = call ptr @lua_tolstring(ptr noundef %1, i32 noundef %2, ptr noundef nonnull %5) #19
  %14 = load i64, ptr %5, align 8, !tbaa !95
  %15 = call ptr @sdscatrepr(ptr noundef %0, ptr noundef %13, i64 noundef %14) #19
  call void @llvm.lifetime.end.p0(i64 8, ptr nonnull %5) #19
  br label %105

16:                                               ; preds = %11
  %17 = tail call i32 @lua_toboolean(ptr noundef %1, i32 noundef %2) #19
  %.not73 = icmp eq i32 %17, 0
  %18 = select i1 %.not73, ptr @.str.81, ptr @.str.80
  %19 = tail call ptr @sdscat(ptr noundef %0, ptr noundef nonnull %18) #19
  br label %105

20:                                               ; preds = %11
  %21 = tail call double @lua_tonumber(ptr noundef %1, i32 noundef %2) #19
  %22 = tail call ptr (ptr, ptr, ...) @sdscatprintf(ptr noundef %0, ptr noundef nonnull @.str.82, double noundef %21) #19
  br label %105

23:                                               ; preds = %11
  %24 = tail call ptr @sdscatlen(ptr noundef %0, ptr noundef nonnull @.str.83, i64 noundef 3) #19
  br label %105

25:                                               ; preds = %11
  %26 = tail call ptr @sdsempty() #19
  %27 = tail call ptr @sdsempty() #19
  tail call void @lua_pushnil(ptr noundef %1) #19
  %28 = add nsw i32 %2, -1
  %29 = tail call i32 @lua_next(ptr noundef %1, i32 noundef %28) #19
  %.not80 = icmp eq i32 %29, 0
  br i1 %.not80, label %._crit_edge, label %.lr.ph

.lr.ph:                                           ; preds = %25, %37
  %.06285 = phi ptr [ %45, %37 ], [ %27, %25 ]
  %.06384 = phi ptr [ %40, %37 ], [ %26, %25 ]
  %.06483 = phi i32 [ %.1, %37 ], [ 1, %25 ]
  %.06581 = phi i32 [ %46, %37 ], [ 1, %25 ]
  %.not71 = icmp eq i32 %.06483, 0
  br i1 %.not71, label %37, label %30

30:                                               ; preds = %.lr.ph
  %31 = tail call i32 @lua_type(ptr noundef %1, i32 noundef -2) #19
  %.not72 = icmp eq i32 %31, 3
  br i1 %.not72, label %32, label %36

32:                                               ; preds = %30
  %33 = tail call double @lua_tonumber(ptr noundef %1, i32 noundef -2) #19
  %34 = uitofp nneg i32 %.06581 to double
  %35 = fcmp une double %33, %34
  br i1 %35, label %36, label %37

36:                                               ; preds = %32, %30
  br label %37

37:                                               ; preds = %36, %32, %.lr.ph
  %38 = phi i1 [ true, %36 ], [ false, %32 ], [ true, %.lr.ph ]
  %.1 = phi i32 [ 0, %36 ], [ 1, %32 ], [ 0, %.lr.ph ]
  %39 = tail call ptr @ldbCatStackValueRec(ptr noundef %.06384, ptr noundef %1, i32 noundef -1, i32 noundef %7)
  %40 = tail call ptr @sdscatlen(ptr noundef %39, ptr noundef nonnull @.str.84, i64 noundef 2) #19
  %41 = tail call ptr @sdscatlen(ptr noundef %.06285, ptr noundef nonnull @.str.85, i64 noundef 1) #19
  %42 = tail call ptr @ldbCatStackValueRec(ptr noundef %41, ptr noundef %1, i32 noundef -2, i32 noundef %7)
  %43 = tail call ptr @sdscatlen(ptr noundef %42, ptr noundef nonnull @.str.86, i64 noundef 2) #19
  %44 = tail call ptr @ldbCatStackValueRec(ptr noundef %43, ptr noundef %1, i32 noundef -1, i32 noundef %7)
  %45 = tail call ptr @sdscatlen(ptr noundef %44, ptr noundef nonnull @.str.84, i64 noundef 2) #19
  tail call void @lua_settop(ptr noundef %1, i32 noundef -2) #19
  %46 = add nuw nsw i32 %.06581, 1
  %47 = tail call i32 @lua_next(ptr noundef %1, i32 noundef %28) #19
  %.not = icmp eq i32 %47, 0
  br i1 %.not, label %._crit_edge.loopexit, label %.lr.ph, !llvm.loop !157

._crit_edge.loopexit:                             ; preds = %37
  %48 = select i1 %38, ptr %45, ptr %40
  br label %._crit_edge

._crit_edge:                                      ; preds = %._crit_edge.loopexit, %25
  %.064.lcssa = phi ptr [ %26, %25 ], [ %48, %._crit_edge.loopexit ]
  %.063.lcssa = phi ptr [ %26, %25 ], [ %40, %._crit_edge.loopexit ]
  %.062.lcssa = phi ptr [ %27, %25 ], [ %45, %._crit_edge.loopexit ]
  %49 = getelementptr inbounds i8, ptr %.063.lcssa, i64 -1
  %50 = load i8, ptr %49, align 1, !tbaa !13
  %51 = zext i8 %50 to i32
  %52 = and i32 %51, 7
  switch i32 %52, label %sdslen.exit.thread [
    i32 0, label %53
    i32 1, label %56
    i32 2, label %60
    i32 3, label %64
    i32 4, label %68
  ]

53:                                               ; preds = %._crit_edge
  %54 = lshr i32 %51, 3
  %55 = zext nneg i32 %54 to i64
  br label %sdslen.exit

56:                                               ; preds = %._crit_edge
  %57 = getelementptr inbounds i8, ptr %.063.lcssa, i64 -3
  %58 = load i8, ptr %57, align 1, !tbaa !13
  %59 = zext i8 %58 to i64
  br label %sdslen.exit

60:                                               ; preds = %._crit_edge
  %61 = getelementptr inbounds i8, ptr %.063.lcssa, i64 -5
  %62 = load i16, ptr %61, align 1, !tbaa !94
  %63 = zext i16 %62 to i64
  br label %sdslen.exit

64:                                               ; preds = %._crit_edge
  %65 = getelementptr inbounds i8, ptr %.063.lcssa, i64 -9
  %66 = load i32, ptr %65, align 1, !tbaa !91
  %67 = zext i32 %66 to i64
  br label %sdslen.exit

68:                                               ; preds = %._crit_edge
  %69 = getelementptr inbounds i8, ptr %.063.lcssa, i64 -17
  %70 = load i64, ptr %69, align 1, !tbaa !95
  br label %sdslen.exit

sdslen.exit:                                      ; preds = %53, %56, %60, %64, %68
  %.0.i = phi i64 [ %70, %68 ], [ %67, %64 ], [ %63, %60 ], [ %59, %56 ], [ %55, %53 ]
  %.not68 = icmp eq i64 %.0.i, 0
  br i1 %.not68, label %sdslen.exit.thread, label %71

71:                                               ; preds = %sdslen.exit
  tail call void @sdsrange(ptr noundef nonnull %.063.lcssa, i64 noundef 0, i64 noundef -3) #19
  br label %sdslen.exit.thread

sdslen.exit.thread:                               ; preds = %._crit_edge, %71, %sdslen.exit
  %72 = getelementptr inbounds i8, ptr %.062.lcssa, i64 -1
  %73 = load i8, ptr %72, align 1, !tbaa !13
  %74 = zext i8 %73 to i32
  %75 = and i32 %74, 7
  switch i32 %75, label %sdslen.exit75.thread [
    i32 0, label %76
    i32 1, label %79
    i32 2, label %83
    i32 3, label %87
    i32 4, label %91
  ]

76:                                               ; preds = %sdslen.exit.thread
  %77 = lshr i32 %74, 3
  %78 = zext nneg i32 %77 to i64
  br label %sdslen.exit75

79:                                               ; preds = %sdslen.exit.thread
  %80 = getelementptr inbounds i8, ptr %.062.lcssa, i64 -3
  %81 = load i8, ptr %80, align 1, !tbaa !13
  %82 = zext i8 %81 to i64
  br label %sdslen.exit75

83:                                               ; preds = %sdslen.exit.thread
  %84 = getelementptr inbounds i8, ptr %.062.lcssa, i64 -5
  %85 = load i16, ptr %84, align 1, !tbaa !94
  %86 = zext i16 %85 to i64
  br label %sdslen.exit75

87:                                               ; preds = %sdslen.exit.thread
  %88 = getelementptr inbounds i8, ptr %.062.lcssa, i64 -9
  %89 = load i32, ptr %88, align 1, !tbaa !91
  %90 = zext i32 %89 to i64
  br label %sdslen.exit75

91:                                               ; preds = %sdslen.exit.thread
  %92 = getelementptr inbounds i8, ptr %.062.lcssa, i64 -17
  %93 = load i64, ptr %92, align 1, !tbaa !95
  br label %sdslen.exit75

sdslen.exit75:                                    ; preds = %76, %79, %83, %87, %91
  %.0.i74 = phi i64 [ %93, %91 ], [ %90, %87 ], [ %86, %83 ], [ %82, %79 ], [ %78, %76 ]
  %.not69 = icmp eq i64 %.0.i74, 0
  br i1 %.not69, label %sdslen.exit75.thread, label %94

94:                                               ; preds = %sdslen.exit75
  tail call void @sdsrange(ptr noundef nonnull %.062.lcssa, i64 noundef 0, i64 noundef -3) #19
  br label %sdslen.exit75.thread

sdslen.exit75.thread:                             ; preds = %sdslen.exit.thread, %94, %sdslen.exit75
  %95 = tail call ptr @sdscatlen(ptr noundef %0, ptr noundef nonnull @.str.87, i64 noundef 1) #19
  %96 = tail call ptr @sdscatsds(ptr noundef %95, ptr noundef %.064.lcssa) #19
  %97 = tail call ptr @sdscatlen(ptr noundef %96, ptr noundef nonnull @.str.88, i64 noundef 1) #19
  tail call void @sdsfree(ptr noundef nonnull %.063.lcssa) #19
  tail call void @sdsfree(ptr noundef nonnull %.062.lcssa) #19
  br label %105

98:                                               ; preds = %11, %11, %11, %11
  %99 = tail call ptr @lua_topointer(ptr noundef %1, i32 noundef %2) #19
  %switch.tableidx = add i32 %6, -2
  %100 = icmp ult i32 %switch.tableidx, 7
  br i1 %100, label %switch.lookup, label %.fold.split

switch.lookup:                                    ; preds = %98
  %101 = zext nneg i32 %switch.tableidx to i64
  %switch.gep = getelementptr inbounds nuw [7 x ptr], ptr @switch.table.ldbCatStackValueRec, i64 0, i64 %101
  %switch.load = load ptr, ptr %switch.gep, align 8
  br label %.fold.split

.fold.split:                                      ; preds = %98, %switch.lookup
  %.0 = phi ptr [ %switch.load, %switch.lookup ], [ @.str.89, %98 ]
  %102 = tail call ptr (ptr, ptr, ...) @sdscatprintf(ptr noundef %0, ptr noundef nonnull @.str.94, ptr noundef nonnull %.0, ptr noundef %99) #19
  br label %105

103:                                              ; preds = %11
  %104 = tail call ptr @sdscat(ptr noundef %0, ptr noundef nonnull @.str.95) #19
  br label %105

105:                                              ; preds = %12, %16, %20, %23, %sdslen.exit75.thread, %.fold.split, %103, %9
  %.061 = phi ptr [ %10, %9 ], [ %104, %103 ], [ %102, %.fold.split ], [ %97, %sdslen.exit75.thread ], [ %24, %23 ], [ %22, %20 ], [ %19, %16 ], [ %15, %12 ]
  ret ptr %.061
}